; Function Attrs: nounwind uwtable
define internal fastcc void @H5LTyy_init_buffer(ptr noundef %0, ptr noundef %1) unnamed_addr #0 {
  %3 = tail call ptr @__errno_location() #31
  %4 = load i32, ptr %3, align 4
  %.not.i = icmp eq ptr %0, null
  %.pre = load ptr, ptr @yy_buffer_stack, align 8
  br i1 %.not.i, label %H5LTyy_flush_buffer.exit, label %5

5:                                                ; preds = %2
  %6 = getelementptr inbounds i8, ptr %0, i64 28
  store i32 0, ptr %6, align 4
  %7 = getelementptr inbounds i8, ptr %0, i64 8
  %8 = load ptr, ptr %7, align 8
  store i8 0, ptr %8, align 1
  %9 = load ptr, ptr %7, align 8
  %10 = getelementptr inbounds i8, ptr %9, i64 1
  store i8 0, ptr %10, align 1
  %11 = load ptr, ptr %7, align 8
  %12 = getelementptr inbounds i8, ptr %0, i64 16
  store ptr %11, ptr %12, align 8
  %13 = getelementptr inbounds i8, ptr %0, i64 40
  store i32 1, ptr %13, align 8
  %14 = getelementptr inbounds i8, ptr %0, i64 56
  store i32 0, ptr %14, align 8
  %.not10.i = icmp eq ptr %.pre, null
  br i1 %.not10.i, label %19, label %15

15:                                               ; preds = %5
  %16 = load i64, ptr @yy_buffer_stack_top, align 8
  %17 = getelementptr inbounds ptr, ptr %.pre, i64 %16
  %18 = load ptr, ptr %17, align 8
  br label %19

19:                                               ; preds = %15, %5
  %20 = phi ptr [ %18, %15 ], [ null, %5 ]
  %21 = icmp eq ptr %20, %0
  br i1 %21, label %H5LTyy_flush_buffer.exit.thread, label %H5LTyy_flush_buffer.exit

H5LTyy_flush_buffer.exit.thread:                  ; preds = %19
  %22 = load i64, ptr @yy_buffer_stack_top, align 8
  %23 = getelementptr inbounds ptr, ptr %.pre, i64 %22
  %24 = load ptr, ptr %23, align 8
  %25 = getelementptr inbounds i8, ptr %24, i64 28
  %26 = load i32, ptr %25, align 4
  store i32 %26, ptr @yy_n_chars, align 4
  %27 = getelementptr inbounds i8, ptr %24, i64 16
  %28 = load ptr, ptr %27, align 8
  store ptr %28, ptr @yy_c_buf_p, align 8
  store ptr %28, ptr @H5LTyytext, align 8
  %29 = load ptr, ptr %23, align 8
  %30 = load ptr, ptr %29, align 8
  store ptr %30, ptr @H5LTyyin, align 8
  %31 = load i8, ptr %28, align 1
  store i8 %31, ptr @yy_hold_char, align 1
  store ptr %1, ptr %0, align 8
  %32 = getelementptr inbounds i8, ptr %0, i64 52
  store i32 1, ptr %32, align 4
  br label %34

H5LTyy_flush_buffer.exit:                         ; preds = %2, %19
  store ptr %1, ptr %0, align 8
  %33 = getelementptr inbounds i8, ptr %0, i64 52
  store i32 1, ptr %33, align 4
  %.not = icmp eq ptr %.pre, null
  br i1 %.not, label %38, label %34

34:                                               ; preds = %H5LTyy_flush_buffer.exit.thread, %H5LTyy_flush_buffer.exit
  %35 = load i64, ptr @yy_buffer_stack_top, align 8
  %36 = getelementptr inbounds ptr, ptr %.pre, i64 %35
  %37 = load ptr, ptr %36, align 8
  br label %38

38:                                               ; preds = %H5LTyy_flush_buffer.exit, %34
  %39 = phi ptr [ %37, %34 ], [ null, %H5LTyy_flush_buffer.exit ]
  %.not12 = icmp eq ptr %39, %0
  br i1 %.not12, label %43, label %40

40:                                               ; preds = %38
  %41 = getelementptr inbounds i8, ptr %0, i64 44
  store i32 1, ptr %41, align 4
  %42 = getelementptr inbounds i8, ptr %0, i64 48
  store i32 0, ptr %42, align 8
  br label %43

43:                                               ; preds = %40, %38
  %.not13 = icmp eq ptr %1, null
  br i1 %.not13, label %49, label %44

44:                                               ; preds = %43
  %45 = tail call i32 @fileno(ptr noundef nonnull %1) #28
  %46 = tail call i32 @isatty(i32 noundef %45) #28
  %47 = icmp sgt i32 %46, 0
  %48 = zext i1 %47 to i32
  br label %49

49:                                               ; preds = %43, %44
  %50 = phi i32 [ %48, %44 ], [ 0, %43 ]
  %51 = getelementptr inbounds i8, ptr %0, i64 36
  store i32 %50, ptr %51, align 4
  store i32 %4, ptr %3, align 4
  ret void
}